target datalayout = "e-m:e-p270:32:32-p271:32:32-p272:64:64-i64:64-i128:128-f80:128-n8:16:32:64-S128"
target triple = "x86_64-pc-linux-gnu"

; Function Attrs: nounwind uwtable
define dso_local i32 @ArrayGetOffset(i32 noundef %0, ptr noundef %1, ptr noundef %2, ptr noundef %3) #0 {
  %5 = alloca i32, align 4
  %6 = alloca ptr, align 8
  %7 = alloca ptr, align 8
  %8 = alloca ptr, align 8
  %9 = alloca i32, align 4
  %10 = alloca i32, align 4
  %11 = alloca i32, align 4
  store i32 %0, ptr %5, align 4
  store ptr %1, ptr %6, align 8
  store ptr %2, ptr %7, align 8
  store ptr %3, ptr %8, align 8
  call void @llvm.lifetime.start.p0(i64 4, ptr %9) #6
  call void @llvm.lifetime.start.p0(i64 4, ptr %10) #6
  store i32 1, ptr %10, align 4
  call void @llvm.lifetime.start.p0(i64 4, ptr %11) #6
  store i32 0, ptr %11, align 4
  %12 = load i32, ptr %5, align 4
  %13 = sub i32 %12, 1
  store i32 %13, ptr %9, align 4
  br label %14

14:                                               ; preds = %40, %4
  %15 = load i32, ptr %9, align 4
  %16 = icmp sge i32 %15, 0
  br i1 %16, label %17, label %43

17:                                               ; preds = %14
  %18 = load ptr, ptr %8, align 8
  %19 = load i32, ptr %9, align 4
  %20 = sext i32 %19 to i64
  %21 = getelementptr inbounds i32, ptr %18, i64 %20
  %22 = load i32, ptr %21, align 4
  %23 = load ptr, ptr %7, align 8
  %24 = load i32, ptr %9, align 4
  %25 = sext i32 %24 to i64
  %26 = getelementptr inbounds i32, ptr %23, i64 %25
  %27 = load i32, ptr %26, align 4
  %28 = sub i32 %22, %27
  %29 = load i32, ptr %10, align 4
  %30 = mul i32 %28, %29
  %31 = load i32, ptr %11, align 4
  %32 = add i32 %31, %30
  store i32 %32, ptr %11, align 4
  %33 = load ptr, ptr %6, align 8
  %34 = load i32, ptr %9, align 4
  %35 = sext i32 %34 to i64
  %36 = getelementptr inbounds i32, ptr %33, i64 %35
  %37 = load i32, ptr %36, align 4
  %38 = load i32, ptr %10, align 4
  %39 = mul i32 %38, %37
  store i32 %39, ptr %10, align 4
  br label %40

40:                                               ; preds = %17
  %41 = load i32, ptr %9, align 4
  %42 = add i32 %41, -1
  store i32 %42, ptr %9, align 4
  br label %14, !llvm.loop !4

43:                                               ; preds = %14
  %44 = load i32, ptr %11, align 4
  call void @llvm.lifetime.end.p0(i64 4, ptr %11) #6
  call void @llvm.lifetime.end.p0(i64 4, ptr %10) #6
  call void @llvm.lifetime.end.p0(i64 4, ptr %9) #6
  ret i32 %44
}