; Function Attrs: nofree norecurse nosync nounwind memory(argmem: read) uwtable
define dso_local i32 @ArrayGetOffset(i32 noundef %0, ptr noundef readonly captures(none) %1, ptr noundef readonly captures(none) %2, ptr noundef readonly captures(none) %3) local_unnamed_addr #0 {
  %.01314 = add i32 %0, -1
  %5 = icmp sgt i32 %.01314, -1
  br i1 %5, label %.lr.ph.preheader, label %._crit_edge

.lr.ph.preheader:                                 ; preds = %4
  %6 = zext nneg i32 %.01314 to i64
  br label %.lr.ph

.lr.ph:                                           ; preds = %.lr.ph.preheader, %.lr.ph
  %indvars.iv = phi i64 [ %6, %.lr.ph.preheader ], [ %indvars.iv.next, %.lr.ph ]
  %.016 = phi i32 [ 0, %.lr.ph.preheader ], [ %13, %.lr.ph ]
  %.01215 = phi i32 [ 1, %.lr.ph.preheader ], [ %16, %.lr.ph ]
  %7 = getelementptr inbounds nuw i32, ptr %3, i64 %indvars.iv
  %8 = load i32, ptr %7, align 4
  %9 = getelementptr inbounds nuw i32, ptr %2, i64 %indvars.iv
  %10 = load i32, ptr %9, align 4
  %11 = sub i32 %8, %10
  %12 = mul i32 %11, %.01215
  %13 = add i32 %12, %.016
  %14 = getelementptr inbounds nuw i32, ptr %1, i64 %indvars.iv
  %15 = load i32, ptr %14, align 4
  %16 = mul i32 %15, %.01215
  %indvars.iv.next = add nsw i64 %indvars.iv, -1
  %.not = icmp eq i64 %indvars.iv, 0
  br i1 %.not, label %._crit_edge, label %.lr.ph, !llvm.loop !4

._crit_edge:                                      ; preds = %.lr.ph, %4
  %.0.lcssa = phi i32 [ 0, %4 ], [ %13, %.lr.ph ]
  ret i32 %.0.lcssa
}